; Function Attrs: mustprogress nounwind uwtable
define void @_ZN19SCTPGraphByteDialogD2Ev(ptr noundef nonnull align 8 dereferenceable(144) %0) unnamed_addr #5 align 2 {
  store ptr getelementptr inbounds ({ [59 x ptr], [10 x ptr] }, ptr @_ZTV19SCTPGraphByteDialog, i64 0, i32 0, i64 2), ptr %0, align 8
  %2 = getelementptr inbounds i8, ptr %0, i64 16
  store ptr getelementptr inbounds ({ [59 x ptr], [10 x ptr] }, ptr @_ZTV19SCTPGraphByteDialog, i64 0, i32 1, i64 2), ptr %2, align 8
  %3 = getelementptr inbounds i8, ptr %0, i64 40
  %4 = load ptr, ptr %3, align 8
  %5 = icmp eq ptr %4, null
  br i1 %5, label %7, label %6

6:                                                ; preds = %1
  tail call void @_ZdlPv(ptr noundef nonnull %4) #17
  br label %7

7:                                                ; preds = %6, %1
  %8 = getelementptr inbounds i8, ptr %0, i64 120
  %9 = load ptr, ptr %8, align 8
  %.not.i.i.i = icmp eq ptr %9, null
  br i1 %.not.i.i.i, label %_ZN5QListIjED2Ev.exit, label %_ZN17QArrayDataPointerIjE5derefEv.exit.i.i

_ZN17QArrayDataPointerIjE5derefEv.exit.i.i:       ; preds = %7
  %10 = atomicrmw sub ptr %9, i32 1 seq_cst, align 4
  %.not.i.i = icmp eq i32 %10, 1
  br i1 %.not.i.i, label %11, label %_ZN5QListIjED2Ev.exit

11:                                               ; preds = %_ZN17QArrayDataPointerIjE5derefEv.exit.i.i
  %12 = load ptr, ptr %8, align 8
  tail call void @_ZN10QArrayData10deallocateEPS_xx(ptr noundef %12, i64 noundef 4, i64 noundef 8) #16
  br label %_ZN5QListIjED2Ev.exit

_ZN5QListIjED2Ev.exit:                            ; preds = %7, %_ZN17QArrayDataPointerIjE5derefEv.exit.i.i, %11
  %13 = getelementptr inbounds i8, ptr %0, i64 96
  %14 = load ptr, ptr %13, align 8
  %.not.i.i.i1 = icmp eq ptr %14, null
  br i1 %.not.i.i.i1, label %_ZN5QListIdED2Ev.exit, label %_ZN17QArrayDataPointerIdE5derefEv.exit.i.i

_ZN17QArrayDataPointerIdE5derefEv.exit.i.i:       ; preds = %_ZN5QListIjED2Ev.exit
  %15 = atomicrmw sub ptr %14, i32 1 seq_cst, align 4
  %.not.i.i2 = icmp eq i32 %15, 1
  br i1 %.not.i.i2, label %16, label %_ZN5QListIdED2Ev.exit

16:                                               ; preds = %_ZN17QArrayDataPointerIdE5derefEv.exit.i.i
  %17 = load ptr, ptr %13, align 8
  tail call void @_ZN10QArrayData10deallocateEPS_xx(ptr noundef %17, i64 noundef 8, i64 noundef 8) #16
  br label %_ZN5QListIdED2Ev.exit

_ZN5QListIdED2Ev.exit:                            ; preds = %_ZN5QListIjED2Ev.exit, %_ZN17QArrayDataPointerIdE5derefEv.exit.i.i, %16
  %18 = getelementptr inbounds i8, ptr %0, i64 72
  %19 = load ptr, ptr %18, align 8
  %.not.i.i.i3 = icmp eq ptr %19, null
  br i1 %.not.i.i.i3, label %_ZN5QListIdED2Ev.exit6, label %_ZN17QArrayDataPointerIdE5derefEv.exit.i.i4

_ZN17QArrayDataPointerIdE5derefEv.exit.i.i4:      ; preds = %_ZN5QListIdED2Ev.exit
  %20 = atomicrmw sub ptr %19, i32 1 seq_cst, align 4
  %.not.i.i5 = icmp eq i32 %20, 1
  br i1 %.not.i.i5, label %21, label %_ZN5QListIdED2Ev.exit6

21:                                               ; preds = %_ZN17QArrayDataPointerIdE5derefEv.exit.i.i4
  %22 = load ptr, ptr %18, align 8
  tail call void @_ZN10QArrayData10deallocateEPS_xx(ptr noundef %22, i64 noundef 8, i64 noundef 8) #16
  br label %_ZN5QListIdED2Ev.exit6

_ZN5QListIdED2Ev.exit6:                           ; preds = %_ZN5QListIdED2Ev.exit, %_ZN17QArrayDataPointerIdE5derefEv.exit.i.i4, %21
  tail call void @_ZN7QDialogD2Ev(ptr noundef nonnull align 8 dereferenceable(40) %0) #16
  ret void
}